target datalayout = "e-m:e-p270:32:32-p271:32:32-p272:64:64-i64:64-i128:128-f80:128-n8:16:32:64-S128"
target triple = "x86_64-pc-linux-gnu"

@.str = private unnamed_addr constant [3 x i8] c"io\00", align 1
@stdin = external global ptr, align 8
@.str.1 = private unnamed_addr constant [6 x i8] c"stdin\00", align 1
@stdout = external global ptr, align 8
@.str.2 = private unnamed_addr constant [7 x i8] c"stdout\00", align 1
@stderr = external global ptr, align 8
@.str.3 = private unnamed_addr constant [7 x i8] c"stderr\00", align 1
@.str.4 = private unnamed_addr constant [6 x i8] c"popen\00", align 1
@.str.5 = private unnamed_addr constant [6 x i8] c"FILE*\00", align 1
@.str.6 = private unnamed_addr constant [8 x i8] c"__index\00", align 1
@.str.17 = private unnamed_addr constant [8 x i8] c"__close\00", align 1

; Function Attrs: nounwind uwtable
define internal ptr @newfile(ptr noundef %0) #0 {
  %2 = alloca ptr, align 8
  %3 = alloca ptr, align 8
  store ptr %0, ptr %2, align 8, !tbaa !4
  call void @llvm.lifetime.start.p0(i64 8, ptr %3) #6
  %4 = load ptr, ptr %2, align 8, !tbaa !4
  %5 = call ptr @lua_newuserdata(ptr noundef %4, i64 noundef 8)
  store ptr %5, ptr %3, align 8, !tbaa !12
  %6 = load ptr, ptr %3, align 8, !tbaa !12
  store ptr null, ptr %6, align 8, !tbaa !9
  %7 = load ptr, ptr %2, align 8, !tbaa !4
  call void @lua_getfield(ptr noundef %7, i32 noundef -10000, ptr noundef @.str.5)
  %8 = load ptr, ptr %2, align 8, !tbaa !4
  %9 = call i32 @lua_setmetatable(ptr noundef %8, i32 noundef -2)
  %10 = load ptr, ptr %3, align 8, !tbaa !12
  call void @llvm.lifetime.end.p0(i64 8, ptr %3) #6
  ret ptr %10
}

; Function Attrs: nounwind uwtable
define internal void @createstdfile(ptr noundef %0, ptr noundef %1, i32 noundef %2, ptr noundef %3) #0 {
  %5 = alloca ptr, align 8
  %6 = alloca ptr, align 8
  %7 = alloca i32, align 4
  %8 = alloca ptr, align 8
  store ptr %0, ptr %5, align 8, !tbaa !4
  store ptr %1, ptr %6, align 8, !tbaa !9
  store i32 %2, ptr %7, align 4, !tbaa !14
  store ptr %3, ptr %8, align 8, !tbaa !16
  %9 = load ptr, ptr %6, align 8, !tbaa !9
  %10 = load ptr, ptr %5, align 8, !tbaa !4
  %11 = call ptr @newfile(ptr noundef %10)
  store ptr %9, ptr %11, align 8, !tbaa !9
  %12 = load i32, ptr %7, align 4, !tbaa !14
  %13 = icmp sgt i32 %12, 0
  br i1 %13, label %14, label %18

14:                                               ; preds = %4
  %15 = load ptr, ptr %5, align 8, !tbaa !4
  call void @lua_pushvalue(ptr noundef %15, i32 noundef -1)
  %16 = load ptr, ptr %5, align 8, !tbaa !4
  %17 = load i32, ptr %7, align 4, !tbaa !14
  call void @lua_rawseti(ptr noundef %16, i32 noundef -10001, i32 noundef %17)
  br label %18

18:                                               ; preds = %14, %4
  %19 = load ptr, ptr %5, align 8, !tbaa !4
  call void @lua_pushvalue(ptr noundef %19, i32 noundef -2)
  %20 = load ptr, ptr %5, align 8, !tbaa !4
  %21 = call i32 @lua_setfenv(ptr noundef %20, i32 noundef -2)
  %22 = load ptr, ptr %5, align 8, !tbaa !4
  %23 = load ptr, ptr %8, align 8, !tbaa !16
  call void @lua_setfield(ptr noundef %22, i32 noundef -3, ptr noundef %23)
  ret void
}

; Function Attrs: nounwind uwtable
define internal void @newfenv(ptr noundef %0, ptr noundef %1) #0 {
  %3 = alloca ptr, align 8
  %4 = alloca ptr, align 8
  store ptr %0, ptr %3, align 8, !tbaa !4
  store ptr %1, ptr %4, align 8, !tbaa !11
  %5 = load ptr, ptr %3, align 8, !tbaa !4
  call void @lua_createtable(ptr noundef %5, i32 noundef 0, i32 noundef 1)
  %6 = load ptr, ptr %3, align 8, !tbaa !4
  %7 = load ptr, ptr %4, align 8, !tbaa !11
  call void @lua_pushcclosure(ptr noundef %6, ptr noundef %7, i32 noundef 0)
  %8 = load ptr, ptr %3, align 8, !tbaa !4
  call void @lua_setfield(ptr noundef %8, i32 noundef -2, ptr noundef @.str.17)
  ret void
}

; Function Attrs: nounwind uwtable
define internal void @createmeta(ptr noundef %0) #0 {
  %2 = alloca ptr, align 8
  store ptr %0, ptr %2, align 8, !tbaa !4
  %3 = load ptr, ptr %2, align 8, !tbaa !4
  %4 = call i32 @luaL_newmetatable(ptr noundef %3, ptr noundef @.str.5)
  %5 = load ptr, ptr %2, align 8, !tbaa !4
  call void @lua_pushvalue(ptr noundef %5, i32 noundef -1)
  %6 = load ptr, ptr %2, align 8, !tbaa !4
  call void @lua_setfield(ptr noundef %6, i32 noundef -2, ptr noundef @.str.6)
  %7 = load ptr, ptr %2, align 8, !tbaa !4
  call void @luaL_register(ptr noundef %7, ptr noundef null, ptr noundef @flib)
  ret void
}

; Function Attrs: nounwind uwtable
define dso_local i32 @luaopen_io(ptr noundef %0) #0 {
  %2 = alloca ptr, align 8
  store ptr %0, ptr %2, align 8, !tbaa !4
  %3 = load ptr, ptr %2, align 8, !tbaa !4
  call void @createmeta(ptr noundef %3)
  %4 = load ptr, ptr %2, align 8, !tbaa !4
  call void @newfenv(ptr noundef %4, ptr noundef @io_fclose)
  %5 = load ptr, ptr %2, align 8, !tbaa !4
  call void @lua_replace(ptr noundef %5, i32 noundef -10001)
  %6 = load ptr, ptr %2, align 8, !tbaa !4
  call void @luaL_register(ptr noundef %6, ptr noundef @.str, ptr noundef @iolib)
  %7 = load ptr, ptr %2, align 8, !tbaa !4
  call void @newfenv(ptr noundef %7, ptr noundef @io_noclose)
  %8 = load ptr, ptr %2, align 8, !tbaa !4
  %9 = load ptr, ptr @stdin, align 8, !tbaa !9
  call void @createstdfile(ptr noundef %8, ptr noundef %9, i32 noundef 1, ptr noundef @.str.1)
  %10 = load ptr, ptr %2, align 8, !tbaa !4
  %11 = load ptr, ptr @stdout, align 8, !tbaa !9
  call void @createstdfile(ptr noundef %10, ptr noundef %11, i32 noundef 2, ptr noundef @.str.2)
  %12 = load ptr, ptr %2, align 8, !tbaa !4
  %13 = load ptr, ptr @stderr, align 8, !tbaa !9
  call void @createstdfile(ptr noundef %12, ptr noundef %13, i32 noundef 0, ptr noundef @.str.3)
  %14 = load ptr, ptr %2, align 8, !tbaa !4
  call void @lua_settop(ptr noundef %14, i32 noundef -2)
  %15 = load ptr, ptr %2, align 8, !tbaa !4
  call void @lua_getfield(ptr noundef %15, i32 noundef -1, ptr noundef @.str.4)
  %16 = load ptr, ptr %2, align 8, !tbaa !4
  call void @newfenv(ptr noundef %16, ptr noundef @io_pclose)
  %17 = load ptr, ptr %2, align 8, !tbaa !4
  %18 = call i32 @lua_setfenv(ptr noundef %17, i32 noundef -2)
  %19 = load ptr, ptr %2, align 8, !tbaa !4
  call void @lua_settop(ptr noundef %19, i32 noundef -2)
  ret i32 1
}