; Function Attrs: nounwind uwtable
define dso_local noundef i32 @luaopen_io(ptr noundef %0) local_unnamed_addr #0 {
  %2 = tail call i32 @luaL_newmetatable(ptr noundef %0, ptr noundef nonnull @.str.5) #9
  tail call void @lua_pushvalue(ptr noundef %0, i32 noundef -1) #9
  tail call void @lua_setfield(ptr noundef %0, i32 noundef -2, ptr noundef nonnull @.str.6) #9
  tail call void @luaL_register(ptr noundef %0, ptr noundef null, ptr noundef nonnull @flib) #9
  tail call void @lua_createtable(ptr noundef %0, i32 noundef 0, i32 noundef 1) #9
  tail call void @lua_pushcclosure(ptr noundef %0, ptr noundef nonnull @io_fclose, i32 noundef 0) #9
  tail call void @lua_setfield(ptr noundef %0, i32 noundef -2, ptr noundef nonnull @.str.17) #9
  tail call void @lua_replace(ptr noundef %0, i32 noundef -10001) #9
  tail call void @luaL_register(ptr noundef %0, ptr noundef nonnull @.str, ptr noundef nonnull @iolib) #9
  tail call void @lua_createtable(ptr noundef %0, i32 noundef 0, i32 noundef 1) #9
  tail call void @lua_pushcclosure(ptr noundef %0, ptr noundef nonnull @io_noclose, i32 noundef 0) #9
  tail call void @lua_setfield(ptr noundef %0, i32 noundef -2, ptr noundef nonnull @.str.17) #9
  %3 = load ptr, ptr @stdin, align 8, !tbaa !4
  %4 = tail call ptr @lua_newuserdata(ptr noundef %0, i64 noundef 8) #9
  store ptr null, ptr %4, align 8, !tbaa !4
  tail call void @lua_getfield(ptr noundef %0, i32 noundef -10000, ptr noundef nonnull @.str.5) #9
  %5 = tail call i32 @lua_setmetatable(ptr noundef %0, i32 noundef -2) #9
  store ptr %3, ptr %4, align 8, !tbaa !4
  tail call void @lua_pushvalue(ptr noundef %0, i32 noundef -1) #9
  tail call void @lua_rawseti(ptr noundef %0, i32 noundef -10001, i32 noundef 1) #9
  tail call void @lua_pushvalue(ptr noundef %0, i32 noundef -2) #9
  %6 = tail call i32 @lua_setfenv(ptr noundef %0, i32 noundef -2) #9
  tail call void @lua_setfield(ptr noundef %0, i32 noundef -3, ptr noundef nonnull @.str.1) #9
  %7 = load ptr, ptr @stdout, align 8, !tbaa !4
  %8 = tail call ptr @lua_newuserdata(ptr noundef %0, i64 noundef 8) #9
  store ptr null, ptr %8, align 8, !tbaa !4
  tail call void @lua_getfield(ptr noundef %0, i32 noundef -10000, ptr noundef nonnull @.str.5) #9
  %9 = tail call i32 @lua_setmetatable(ptr noundef %0, i32 noundef -2) #9
  store ptr %7, ptr %8, align 8, !tbaa !4
  tail call void @lua_pushvalue(ptr noundef %0, i32 noundef -1) #9
  tail call void @lua_rawseti(ptr noundef %0, i32 noundef -10001, i32 noundef 2) #9
  tail call void @lua_pushvalue(ptr noundef %0, i32 noundef -2) #9
  %10 = tail call i32 @lua_setfenv(ptr noundef %0, i32 noundef -2) #9
  tail call void @lua_setfield(ptr noundef %0, i32 noundef -3, ptr noundef nonnull @.str.2) #9
  %11 = load ptr, ptr @stderr, align 8, !tbaa !4
  %12 = tail call ptr @lua_newuserdata(ptr noundef %0, i64 noundef 8) #9
  store ptr null, ptr %12, align 8, !tbaa !4
  tail call void @lua_getfield(ptr noundef %0, i32 noundef -10000, ptr noundef nonnull @.str.5) #9
  %13 = tail call i32 @lua_setmetatable(ptr noundef %0, i32 noundef -2) #9
  store ptr %11, ptr %12, align 8, !tbaa !4
  tail call void @lua_pushvalue(ptr noundef %0, i32 noundef -2) #9
  %14 = tail call i32 @lua_setfenv(ptr noundef %0, i32 noundef -2) #9
  tail call void @lua_setfield(ptr noundef %0, i32 noundef -3, ptr noundef nonnull @.str.3) #9
  tail call void @lua_settop(ptr noundef %0, i32 noundef -2) #9
  tail call void @lua_getfield(ptr noundef %0, i32 noundef -1, ptr noundef nonnull @.str.4) #9
  tail call void @lua_createtable(ptr noundef %0, i32 noundef 0, i32 noundef 1) #9
  tail call void @lua_pushcclosure(ptr noundef %0, ptr noundef nonnull @io_pclose, i32 noundef 0) #9
  tail call void @lua_setfield(ptr noundef %0, i32 noundef -2, ptr noundef nonnull @.str.17) #9
  %15 = tail call i32 @lua_setfenv(ptr noundef %0, i32 noundef -2) #9
  tail call void @lua_settop(ptr noundef %0, i32 noundef -2) #9
  ret i32 1
}